target datalayout = "e-m:e-p270:32:32-p271:32:32-p272:64:64-i64:64-i128:128-f80:128-n8:16:32:64-S128"
target triple = "x86_64-pc-linux-gnu"

%struct.SDL_Renderer = type { ptr, ptr, ptr, ptr, ptr, ptr, ptr, ptr, ptr, ptr, ptr, ptr, ptr, ptr, ptr, ptr, ptr, ptr, ptr, ptr, ptr, ptr, ptr, ptr, ptr, ptr, ptr, ptr, ptr, ptr, i32, i8, ptr, i8, i8, i8, i64, i64, ptr, %struct.SDL_RenderViewState, %struct.SDL_FPoint, i32, i32, ptr, ptr, ptr, i32, float, float, float, float, %struct.SDL_FColor, i32, i32, i32, ptr, ptr, ptr, ptr, i32, %struct.SDL_FColor, float, %struct.SDL_Rect, %struct.SDL_Rect, i8, i8, i8, i8, ptr, i64, i64, i8, ptr, ptr, i32, ptr, i8, ptr, ptr }
%struct.SDL_RenderViewState = type { i32, i32, %struct.SDL_Rect, %struct.SDL_Rect, %struct.SDL_Rect, %struct.SDL_Rect, i8, %struct.SDL_FPoint, i32, i32, i32, %struct.SDL_FRect, %struct.SDL_FRect, %struct.SDL_FPoint, %struct.SDL_FPoint, %struct.SDL_FPoint }
%struct.SDL_FRect = type { float, float, float, float }
%struct.SDL_FPoint = type { float, float }
%struct.SDL_FColor = type { float, float, float, float }
%struct.SDL_Rect = type { i32, i32, i32, i32 }
%struct.GL_RenderData = type { ptr, i8, i8, i32, ptr, ptr, ptr, i32, i8, i8, i8, ptr, ptr, ptr, ptr, ptr, ptr, ptr, ptr, ptr, ptr, ptr, ptr, ptr, ptr, ptr, ptr, ptr, ptr, ptr, ptr, ptr, ptr, ptr, ptr, ptr, ptr, ptr, ptr, ptr, ptr, ptr, ptr, ptr, ptr, ptr, ptr, ptr, ptr, ptr, ptr, ptr, ptr, ptr, ptr, ptr, ptr, ptr, ptr, ptr, i8, ptr, i32, ptr, ptr, ptr, ptr, ptr, ptr, %struct.GL_DrawStateCache }
%struct.GL_DrawStateCache = type { i8, %struct.SDL_Rect, ptr, ptr, i32, i32, i32, i32, [4 x float], ptr, i8, i8, i8, %struct.SDL_Rect, i8, i8, i8, i8, i8, i8, %struct.SDL_FColor, i8, %struct.SDL_FColor }
%struct.SDL_Texture = type { i32, i32, i32, i32, i32, float, float, i32, i32, i32, %struct.SDL_FColor, %struct.SDL_RenderViewState, ptr, ptr, ptr, ptr, i32, %struct.SDL_Rect, ptr, i32, i32, ptr, ptr, ptr }
%struct.GL_TextureData = type { i32, i8, float, float, i32, i32, i32, [4 x float], ptr, ptr, i32, %struct.SDL_Rect, i8, i8, i32, i8, i32, i8, i32, i32, i32, ptr }

@.str.25 = private unnamed_addr constant [119 x i8] c"generated/home/dtcxzyw/WorkSpace/Projects/compilers/llvm-opt-benchmark/bench/sdl/SDL/src/render/opengl/SDL_render_gl.c\00", align 1
@.str.53 = private unnamed_addr constant [18 x i8] c"glTexSubImage2D()\00", align 1
@__func__.GL_UpdateTextureNV = private unnamed_addr constant [19 x i8] c"GL_UpdateTextureNV\00", align 1

; Function Attrs: nounwind uwtable
define internal zeroext i1 @GL_UpdateTextureNV(ptr noundef %0, ptr noundef %1, ptr noundef %2, ptr noundef %3, i32 noundef %4, ptr noundef %5, i32 noundef %6) #0 {
  %8 = alloca ptr, align 8
  %9 = alloca ptr, align 8
  %10 = alloca ptr, align 8
  %11 = alloca ptr, align 8
  %12 = alloca i32, align 4
  %13 = alloca ptr, align 8
  %14 = alloca i32, align 4
  %15 = alloca ptr, align 8
  %16 = alloca i32, align 4
  %17 = alloca ptr, align 8
  store ptr %0, ptr %8, align 8
  store ptr %1, ptr %9, align 8
  store ptr %2, ptr %10, align 8
  store ptr %3, ptr %11, align 8
  store i32 %4, ptr %12, align 4
  store ptr %5, ptr %13, align 8
  store i32 %6, ptr %14, align 4
  call void @llvm.lifetime.start.p0(i64 8, ptr %15) #4
  %18 = load ptr, ptr %8, align 8
  %19 = getelementptr inbounds nuw %struct.SDL_Renderer, ptr %18, i32 0, i32 77
  %20 = load ptr, ptr %19, align 8
  store ptr %20, ptr %15, align 8
  call void @llvm.lifetime.start.p0(i64 4, ptr %16) #4
  %21 = load ptr, ptr %15, align 8
  %22 = getelementptr inbounds nuw %struct.GL_RenderData, ptr %21, i32 0, i32 7
  %23 = load i32, ptr %22, align 8
  store i32 %23, ptr %16, align 4
  call void @llvm.lifetime.start.p0(i64 8, ptr %17) #4
  %24 = load ptr, ptr %9, align 8
  %25 = getelementptr inbounds nuw %struct.SDL_Texture, ptr %24, i32 0, i32 21
  %26 = load ptr, ptr %25, align 8
  store ptr %26, ptr %17, align 8
  %27 = load ptr, ptr %8, align 8
  %28 = call zeroext i1 @GL_ActivateRenderer(ptr noundef %27)
  %29 = load ptr, ptr %15, align 8
  %30 = getelementptr inbounds nuw %struct.GL_RenderData, ptr %29, i32 0, i32 69
  %31 = getelementptr inbounds nuw %struct.GL_DrawStateCache, ptr %30, i32 0, i32 2
  store ptr null, ptr %31, align 8
  %32 = load ptr, ptr %15, align 8
  %33 = getelementptr inbounds nuw %struct.GL_RenderData, ptr %32, i32 0, i32 13
  %34 = load ptr, ptr %33, align 8
  %35 = load i32, ptr %16, align 4
  %36 = load ptr, ptr %17, align 8
  %37 = getelementptr inbounds nuw %struct.GL_TextureData, ptr %36, i32 0, i32 0
  %38 = load i32, ptr %37, align 8
  call void %34(i32 noundef %35, i32 noundef %38)
  %39 = load ptr, ptr %15, align 8
  %40 = getelementptr inbounds nuw %struct.GL_RenderData, ptr %39, i32 0, i32 41
  %41 = load ptr, ptr %40, align 8
  call void %41(i32 noundef 3317, i32 noundef 1)
  %42 = load ptr, ptr %15, align 8
  %43 = getelementptr inbounds nuw %struct.GL_RenderData, ptr %42, i32 0, i32 41
  %44 = load ptr, ptr %43, align 8
  %45 = load i32, ptr %12, align 4
  call void %44(i32 noundef 3314, i32 noundef %45)
  %46 = load ptr, ptr %15, align 8
  %47 = getelementptr inbounds nuw %struct.GL_RenderData, ptr %46, i32 0, i32 55
  %48 = load ptr, ptr %47, align 8
  %49 = load i32, ptr %16, align 4
  %50 = load ptr, ptr %10, align 8
  %51 = getelementptr inbounds nuw %struct.SDL_Rect, ptr %50, i32 0, i32 0
  %52 = load i32, ptr %51, align 4
  %53 = load ptr, ptr %10, align 8
  %54 = getelementptr inbounds nuw %struct.SDL_Rect, ptr %53, i32 0, i32 1
  %55 = load i32, ptr %54, align 4
  %56 = load ptr, ptr %10, align 8
  %57 = getelementptr inbounds nuw %struct.SDL_Rect, ptr %56, i32 0, i32 2
  %58 = load i32, ptr %57, align 4
  %59 = load ptr, ptr %10, align 8
  %60 = getelementptr inbounds nuw %struct.SDL_Rect, ptr %59, i32 0, i32 3
  %61 = load i32, ptr %60, align 4
  %62 = load ptr, ptr %17, align 8
  %63 = getelementptr inbounds nuw %struct.GL_TextureData, ptr %62, i32 0, i32 4
  %64 = load i32, ptr %63, align 8
  %65 = load ptr, ptr %17, align 8
  %66 = getelementptr inbounds nuw %struct.GL_TextureData, ptr %65, i32 0, i32 5
  %67 = load i32, ptr %66, align 4
  %68 = load ptr, ptr %11, align 8
  call void %48(i32 noundef %49, i32 noundef 0, i32 noundef %52, i32 noundef %55, i32 noundef %58, i32 noundef %61, i32 noundef %64, i32 noundef %67, ptr noundef %68)
  %69 = load ptr, ptr %15, align 8
  %70 = getelementptr inbounds nuw %struct.GL_RenderData, ptr %69, i32 0, i32 41
  %71 = load ptr, ptr %70, align 8
  %72 = load i32, ptr %14, align 4
  %73 = sdiv i32 %72, 2
  call void %71(i32 noundef 3314, i32 noundef %73)
  %74 = load ptr, ptr %15, align 8
  %75 = getelementptr inbounds nuw %struct.GL_RenderData, ptr %74, i32 0, i32 13
  %76 = load ptr, ptr %75, align 8
  %77 = load i32, ptr %16, align 4
  %78 = load ptr, ptr %17, align 8
  %79 = getelementptr inbounds nuw %struct.GL_TextureData, ptr %78, i32 0, i32 14
  %80 = load i32, ptr %79, align 8
  call void %76(i32 noundef %77, i32 noundef %80)
  %81 = load ptr, ptr %15, align 8
  %82 = getelementptr inbounds nuw %struct.GL_RenderData, ptr %81, i32 0, i32 55
  %83 = load ptr, ptr %82, align 8
  %84 = load i32, ptr %16, align 4
  %85 = load ptr, ptr %10, align 8
  %86 = getelementptr inbounds nuw %struct.SDL_Rect, ptr %85, i32 0, i32 0
  %87 = load i32, ptr %86, align 4
  %88 = sdiv i32 %87, 2
  %89 = load ptr, ptr %10, align 8
  %90 = getelementptr inbounds nuw %struct.SDL_Rect, ptr %89, i32 0, i32 1
  %91 = load i32, ptr %90, align 4
  %92 = sdiv i32 %91, 2
  %93 = load ptr, ptr %10, align 8
  %94 = getelementptr inbounds nuw %struct.SDL_Rect, ptr %93, i32 0, i32 2
  %95 = load i32, ptr %94, align 4
  %96 = add nsw i32 %95, 1
  %97 = sdiv i32 %96, 2
  %98 = load ptr, ptr %10, align 8
  %99 = getelementptr inbounds nuw %struct.SDL_Rect, ptr %98, i32 0, i32 3
  %100 = load i32, ptr %99, align 4
  %101 = add nsw i32 %100, 1
  %102 = sdiv i32 %101, 2
  %103 = load ptr, ptr %13, align 8
  call void %83(i32 noundef %84, i32 noundef 0, i32 noundef %88, i32 noundef %92, i32 noundef %97, i32 noundef %102, i32 noundef 6410, i32 noundef 5121, ptr noundef %103)
  %104 = load ptr, ptr %8, align 8
  %105 = call zeroext i1 @GL_CheckAllErrors(ptr noundef @.str.53, ptr noundef %104, ptr noundef @.str.25, i32 noundef 790, ptr noundef @__func__.GL_UpdateTextureNV)
  call void @llvm.lifetime.end.p0(i64 8, ptr %17) #4
  call void @llvm.lifetime.end.p0(i64 4, ptr %16) #4
  call void @llvm.lifetime.end.p0(i64 8, ptr %15) #4
  ret i1 %105
}