; Function Attrs: nounwind uwtable
define internal noundef zeroext i1 @GL_UpdateTextureNV(ptr noundef readonly captures(none) %0, ptr noundef readonly captures(none) %1, ptr noundef readonly captures(none) %2, ptr noundef %3, i32 noundef %4, ptr noundef %5, i32 noundef %6) #0 {
  %8 = getelementptr inbounds nuw i8, ptr %0, i64 696
  %9 = load ptr, ptr %8, align 8
  %10 = getelementptr inbounds nuw i8, ptr %9, i64 40
  %11 = load i32, ptr %10, align 8
  %12 = getelementptr inbounds nuw i8, ptr %1, i64 280
  %13 = load ptr, ptr %12, align 8
  %14 = tail call fastcc zeroext i1 @GL_ActivateRenderer(ptr noundef %0)
  %15 = getelementptr inbounds nuw i8, ptr %9, i64 536
  store ptr null, ptr %15, align 8
  %16 = getelementptr inbounds nuw i8, ptr %9, i64 64
  %17 = load ptr, ptr %16, align 8
  %18 = load i32, ptr %13, align 8
  tail call void %17(i32 noundef %11, i32 noundef %18) #7
  %19 = getelementptr inbounds nuw i8, ptr %9, i64 288
  %20 = load ptr, ptr %19, align 8
  tail call void %20(i32 noundef 3317, i32 noundef 1) #7
  %21 = load ptr, ptr %19, align 8
  tail call void %21(i32 noundef 3314, i32 noundef %4) #7
  %22 = getelementptr inbounds nuw i8, ptr %9, i64 400
  %23 = load ptr, ptr %22, align 8
  %24 = load i32, ptr %2, align 4
  %25 = getelementptr inbounds nuw i8, ptr %2, i64 4
  %26 = load i32, ptr %25, align 4
  %27 = getelementptr inbounds nuw i8, ptr %2, i64 8
  %28 = load i32, ptr %27, align 4
  %29 = getelementptr inbounds nuw i8, ptr %2, i64 12
  %30 = load i32, ptr %29, align 4
  %31 = getelementptr inbounds nuw i8, ptr %13, i64 16
  %32 = load i32, ptr %31, align 8
  %33 = getelementptr inbounds nuw i8, ptr %13, i64 20
  %34 = load i32, ptr %33, align 4
  tail call void %23(i32 noundef %11, i32 noundef 0, i32 noundef %24, i32 noundef %26, i32 noundef %28, i32 noundef %30, i32 noundef %32, i32 noundef %34, ptr noundef %3) #7
  %35 = load ptr, ptr %19, align 8
  %36 = sdiv i32 %6, 2
  tail call void %35(i32 noundef 3314, i32 noundef %36) #7
  %37 = load ptr, ptr %16, align 8
  %38 = getelementptr inbounds nuw i8, ptr %13, i64 88
  %39 = load i32, ptr %38, align 8
  tail call void %37(i32 noundef %11, i32 noundef %39) #7
  %40 = load ptr, ptr %22, align 8
  %41 = load i32, ptr %2, align 4
  %42 = sdiv i32 %41, 2
  %43 = load i32, ptr %25, align 4
  %44 = sdiv i32 %43, 2
  %45 = load i32, ptr %27, align 4
  %46 = add nsw i32 %45, 1
  %47 = sdiv i32 %46, 2
  %48 = load i32, ptr %29, align 4
  %49 = add nsw i32 %48, 1
  %50 = sdiv i32 %49, 2
  tail call void %40(i32 noundef %11, i32 noundef 0, i32 noundef %42, i32 noundef %44, i32 noundef %47, i32 noundef %50, i32 noundef 6410, i32 noundef 5121, ptr noundef %5) #7
  %51 = tail call fastcc zeroext i1 @GL_CheckAllErrors(ptr noundef nonnull @.str.53, ptr noundef %0, i32 noundef 790, ptr noundef nonnull @__func__.GL_UpdateTextureNV)
  ret i1 %51
}